target datalayout = "e-m:e-p270:32:32-p271:32:32-p272:64:64-i64:64-i128:128-f80:128-n8:16:32:64-S128"
target triple = "x86_64-unknown-linux-gnu"

%struct.grpc_channel_element = type { ptr, ptr }
%struct.grpc_channel_stack = type { %struct.grpc_stream_refcount, i64, i64, %"class.grpc_core::ManualConstructor.3", %"class.grpc_core::ManualConstructor.4" }
%struct.grpc_stream_refcount = type { %"class.grpc_core::RefCount", %struct.grpc_closure }
%"class.grpc_core::RefCount" = type { %"struct.std::atomic.0" }
%"struct.std::atomic.0" = type { %"struct.std::__atomic_base.1" }
%"struct.std::__atomic_base.1" = type { i64 }
%struct.grpc_closure = type { %union.anon, ptr, ptr, %union.anon.2 }
%union.anon = type { ptr }
%union.anon.2 = type { i64 }
%"class.grpc_core::ManualConstructor.3" = type { [32 x i8] }
%"class.grpc_core::ManualConstructor.4" = type { [16 x i8] }

; Function Attrs: mustprogress nounwind uwtable
define noundef ptr @_Z26grpc_channel_stack_elementP18grpc_channel_stackm(ptr noundef %channel_stack, i64 noundef %index) #4 {
entry:
  %channel_stack.addr = alloca ptr, align 8
  %index.addr = alloca i64, align 8
  store ptr %channel_stack, ptr %channel_stack.addr, align 8
  store i64 %index, ptr %index.addr, align 8
  %0 = load ptr, ptr %channel_stack.addr, align 8
  %add.ptr = getelementptr inbounds i8, ptr %0, i64 112
  %1 = load i64, ptr %index.addr, align 8
  %add.ptr1 = getelementptr inbounds %struct.grpc_channel_element, ptr %add.ptr, i64 %1
  ret ptr %add.ptr1
}

; Function Attrs: mustprogress nounwind uwtable
define noundef i64 @_Z41grpc_channel_stack_filter_instance_numberP18grpc_channel_stackP20grpc_channel_element(ptr noundef %channel_stack, ptr noundef %elem) #4 {
entry:
  %channel_stack.addr = alloca ptr, align 8
  %elem.addr = alloca ptr, align 8
  %num_found = alloca i64, align 8
  %i = alloca i64, align 8
  %element = alloca ptr, align 8
  store ptr %channel_stack, ptr %channel_stack.addr, align 8
  store ptr %elem, ptr %elem.addr, align 8
  store i64 0, ptr %num_found, align 8
  store i64 0, ptr %i, align 8
  br label %for.cond

for.cond:                                         ; preds = %for.inc, %entry
  %0 = load i64, ptr %i, align 8
  %1 = load ptr, ptr %channel_stack.addr, align 8
  %count = getelementptr inbounds %struct.grpc_channel_stack, ptr %1, i32 0, i32 1
  %2 = load i64, ptr %count, align 8
  %cmp = icmp ult i64 %0, %2
  br i1 %cmp, label %for.body, label %for.end

for.body:                                         ; preds = %for.cond
  %3 = load ptr, ptr %channel_stack.addr, align 8
  %4 = load i64, ptr %i, align 8
  %call = call noundef ptr @_Z26grpc_channel_stack_elementP18grpc_channel_stackm(ptr noundef %3, i64 noundef %4)
  store ptr %call, ptr %element, align 8
  %5 = load ptr, ptr %element, align 8
  %6 = load ptr, ptr %elem.addr, align 8
  %cmp1 = icmp eq ptr %5, %6
  br i1 %cmp1, label %if.then, label %if.end

if.then:                                          ; preds = %for.body
  br label %for.end

if.end:                                           ; preds = %for.body
  %7 = load ptr, ptr %element, align 8
  %filter = getelementptr inbounds %struct.grpc_channel_element, ptr %7, i32 0, i32 0
  %8 = load ptr, ptr %filter, align 8
  %9 = load ptr, ptr %elem.addr, align 8
  %filter2 = getelementptr inbounds %struct.grpc_channel_element, ptr %9, i32 0, i32 0
  %10 = load ptr, ptr %filter2, align 8
  %cmp3 = icmp eq ptr %8, %10
  br i1 %cmp3, label %if.then4, label %if.end5

if.then4:                                         ; preds = %if.end
  %11 = load i64, ptr %num_found, align 8
  %inc = add i64 %11, 1
  store i64 %inc, ptr %num_found, align 8
  br label %if.end5

if.end5:                                          ; preds = %if.then4, %if.end
  br label %for.inc

for.inc:                                          ; preds = %if.end5
  %12 = load i64, ptr %i, align 8
  %inc6 = add i64 %12, 1
  store i64 %inc6, ptr %i, align 8
  br label %for.cond, !llvm.loop !6

for.end:                                          ; preds = %if.then, %for.cond
  %13 = load i64, ptr %num_found, align 8
  ret i64 %13
}