; Function Attrs: mustprogress nofree norecurse nosync nounwind willreturn memory(argmem: read) uwtable
define noundef i64 @_Z41grpc_channel_stack_filter_instance_numberP18grpc_channel_stackP20grpc_channel_element(ptr noundef readonly %channel_stack, ptr noundef readonly %elem) local_unnamed_addr #5 {
entry:
  %add.ptr.i = getelementptr inbounds i8, ptr %channel_stack, i64 112
  %count = getelementptr inbounds i8, ptr %channel_stack, i64 40
  %0 = load i64, ptr %count, align 8
  %cmp7.not = icmp eq i64 %0, 0
  br i1 %cmp7.not, label %for.end, label %for.body

for.body:                                         ; preds = %entry, %if.end
  %num_found.09 = phi i64 [ %spec.select, %if.end ], [ 0, %entry ]
  %i.08 = phi i64 [ %inc6, %if.end ], [ 0, %entry ]
  %add.ptr1.i = getelementptr inbounds %struct.grpc_channel_element, ptr %add.ptr.i, i64 %i.08
  %cmp1 = icmp eq ptr %add.ptr1.i, %elem
  br i1 %cmp1, label %for.end, label %if.end

if.end:                                           ; preds = %for.body
  %1 = load ptr, ptr %add.ptr1.i, align 8
  %2 = load ptr, ptr %elem, align 8
  %cmp3 = icmp eq ptr %1, %2
  %inc = zext i1 %cmp3 to i64
  %spec.select = add i64 %num_found.09, %inc
  %inc6 = add nuw i64 %i.08, 1
  %exitcond.not = icmp eq i64 %inc6, %0
  br i1 %exitcond.not, label %for.end, label %for.body, !llvm.loop !6

for.end:                                          ; preds = %if.end, %for.body, %entry
  %num_found.0.lcssa = phi i64 [ 0, %entry ], [ %num_found.09, %for.body ], [ %spec.select, %if.end ]
  ret i64 %num_found.0.lcssa
}